target datalayout = "e-m:e-p270:32:32-p271:32:32-p272:64:64-i64:64-i128:128-f80:128-n8:16:32:64-S128"
target triple = "x86_64-pc-linux-gnu"

%struct._wmem_strbuf_t = type { ptr, ptr, i64, i64 }

; Function Attrs: inlinehint nounwind null_pointer_is_valid sspstrong uwtable
define internal i32 @_memcmp_len(ptr noundef %0, i64 noundef %1, ptr noundef %2, i64 noundef %3) #10 {
  %5 = alloca i32, align 4
  %6 = alloca ptr, align 8
  %7 = alloca i64, align 8
  %8 = alloca ptr, align 8
  %9 = alloca i64, align 8
  %10 = alloca i64, align 8
  %11 = alloca i32, align 4
  %12 = alloca i32, align 4
  store ptr %0, ptr %6, align 8
  store i64 %1, ptr %7, align 8
  store ptr %2, ptr %8, align 8
  store i64 %3, ptr %9, align 8
  call void @llvm.lifetime.start.p0(i64 8, ptr %10) #15
  call void @llvm.lifetime.start.p0(i64 4, ptr %11) #15
  %13 = load i64, ptr %7, align 8
  %14 = load i64, ptr %9, align 8
  %15 = icmp ult i64 %13, %14
  br i1 %15, label %16, label %18

16:                                               ; preds = %4
  %17 = load i64, ptr %7, align 8
  br label %20

18:                                               ; preds = %4
  %19 = load i64, ptr %9, align 8
  br label %20

20:                                               ; preds = %18, %16
  %21 = phi i64 [ %17, %16 ], [ %19, %18 ]
  store i64 %21, ptr %10, align 8
  %22 = load ptr, ptr %6, align 8
  %23 = load ptr, ptr %8, align 8
  %24 = load i64, ptr %10, align 8
  %25 = call i32 @memcmp(ptr noundef %22, ptr noundef %23, i64 noundef %24) #17
  store i32 %25, ptr %11, align 4
  %26 = icmp ne i32 %25, 0
  br i1 %26, label %27, label %29

27:                                               ; preds = %20
  %28 = load i32, ptr %11, align 4
  store i32 %28, ptr %5, align 4
  store i32 1, ptr %12, align 4
  br label %40

29:                                               ; preds = %20
  %30 = load i64, ptr %7, align 8
  %31 = load i64, ptr %9, align 8
  %32 = icmp ult i64 %30, %31
  br i1 %32, label %33, label %34

33:                                               ; preds = %29
  store i32 -1, ptr %5, align 4
  store i32 1, ptr %12, align 4
  br label %40

34:                                               ; preds = %29
  %35 = load i64, ptr %7, align 8
  %36 = load i64, ptr %9, align 8
  %37 = icmp ugt i64 %35, %36
  br i1 %37, label %38, label %39

38:                                               ; preds = %34
  store i32 1, ptr %5, align 4
  store i32 1, ptr %12, align 4
  br label %40

39:                                               ; preds = %34
  store i32 0, ptr %5, align 4
  store i32 1, ptr %12, align 4
  br label %40

40:                                               ; preds = %39, %38, %33, %27
  call void @llvm.lifetime.end.p0(i64 4, ptr %11) #15
  call void @llvm.lifetime.end.p0(i64 8, ptr %10) #15
  %41 = load i32, ptr %5, align 4
  ret i32 %41
}

; Function Attrs: null_pointer_is_valid sspstrong uwtable
define i32 @wmem_strbuf_strcmp(ptr noundef %0, ptr noundef %1) #0 {
  %3 = alloca ptr, align 8
  %4 = alloca ptr, align 8
  store ptr %0, ptr %3, align 8
  store ptr %1, ptr %4, align 8
  %5 = load ptr, ptr %3, align 8
  %6 = getelementptr inbounds nuw %struct._wmem_strbuf_t, ptr %5, i32 0, i32 1
  %7 = load ptr, ptr %6, align 8
  %8 = load ptr, ptr %3, align 8
  %9 = getelementptr inbounds nuw %struct._wmem_strbuf_t, ptr %8, i32 0, i32 2
  %10 = load i64, ptr %9, align 8
  %11 = load ptr, ptr %4, align 8
  %12 = getelementptr inbounds nuw %struct._wmem_strbuf_t, ptr %11, i32 0, i32 1
  %13 = load ptr, ptr %12, align 8
  %14 = load ptr, ptr %4, align 8
  %15 = getelementptr inbounds nuw %struct._wmem_strbuf_t, ptr %14, i32 0, i32 2
  %16 = load i64, ptr %15, align 8
  %17 = call i32 @_memcmp_len(ptr noundef %7, i64 noundef %10, ptr noundef %13, i64 noundef %16)
  ret i32 %17
}