; Function Attrs: mustprogress nofree nounwind null_pointer_is_valid sspstrong willreturn memory(read, inaccessiblemem: none) uwtable
define i32 @wmem_strbuf_strcmp(ptr noundef readonly captures(none) %0, ptr noundef readonly captures(none) %1) local_unnamed_addr #9 {
  %3 = getelementptr inbounds nuw i8, ptr %0, i64 8
  %4 = load ptr, ptr %3, align 8
  %5 = getelementptr inbounds nuw i8, ptr %0, i64 16
  %6 = load i64, ptr %5, align 8
  %7 = getelementptr inbounds nuw i8, ptr %1, i64 8
  %8 = load ptr, ptr %7, align 8
  %9 = getelementptr inbounds nuw i8, ptr %1, i64 16
  %10 = load i64, ptr %9, align 8
  %11 = tail call i64 @llvm.umin.i64(i64 %6, i64 %10)
  %12 = tail call i32 @memcmp(ptr noundef readonly %4, ptr noundef readonly %8, i64 noundef %11) #18
  %.not.i = icmp eq i32 %12, 0
  br i1 %.not.i, label %13, label %_memcmp_len.exit

13:                                               ; preds = %2
  %14 = icmp ult i64 %6, %10
  br i1 %14, label %_memcmp_len.exit, label %15

15:                                               ; preds = %13
  %16 = icmp ugt i64 %6, %10
  %..i = zext i1 %16 to i32
  br label %_memcmp_len.exit

_memcmp_len.exit:                                 ; preds = %2, %13, %15
  %.0.i = phi i32 [ %12, %2 ], [ -1, %13 ], [ %..i, %15 ]
  ret i32 %.0.i
}